target datalayout = "e-m:e-p270:32:32-p271:32:32-p272:64:64-i64:64-i128:128-f80:128-n8:16:32:64-S128"
target triple = "x86_64-pc-linux-gnu"

%"class.icu_77::Normalizer" = type <{ %"class.icu_77::UObject", ptr, ptr, i32, i32, ptr, i32, i32, %"class.icu_77::UnicodeString", i32, [4 x i8] }>
%"class.icu_77::UObject" = type { ptr }
%"class.icu_77::UnicodeString" = type { %"class.icu_77::Replaceable", %"union.icu_77::UnicodeString::StackBufferOrFields" }
%"class.icu_77::Replaceable" = type { %"class.icu_77::UObject" }
%"union.icu_77::UnicodeString::StackBufferOrFields" = type { %struct.anon.0, [32 x i8] }
%struct.anon.0 = type { i16, i32, i32, ptr }
%struct.anon = type { i16, [27 x i16] }

@_ZTVN6icu_7710NormalizerE = unnamed_addr constant { [5 x ptr] } { [5 x ptr] [ptr null, ptr @_ZTIN6icu_7710NormalizerE, ptr @_ZN6icu_7710NormalizerD1Ev, ptr @_ZN6icu_7710NormalizerD0Ev, ptr @_ZNK6icu_7710Normalizer17getDynamicClassIDEv] }, align 8
@_ZTVN6icu_777UObjectE = available_externally unnamed_addr constant { [5 x ptr] } { [5 x ptr] [ptr null, ptr @_ZTIN6icu_777UObjectE, ptr @_ZN6icu_777UObjectD1Ev, ptr @_ZN6icu_777UObjectD0Ev, ptr @_ZNK6icu_777UObject17getDynamicClassIDEv] }, align 8

; Function Attrs: inlinehint mustprogress nounwind uwtable
define linkonce_odr void @_ZN6icu_7711ReplaceableC2Ev(ptr noundef nonnull align 8 dereferenceable(8) %0) unnamed_addr #3 comdat align 2 {
  %2 = alloca ptr, align 8
  store ptr %0, ptr %2, align 8, !tbaa !58
  %3 = load ptr, ptr %2, align 8
  call void @_ZN6icu_777UObjectC2Ev(ptr noundef nonnull align 8 dereferenceable(8) %3) #9
  store ptr getelementptr inbounds inrange(-16, 88) ({ [13 x ptr] }, ptr @_ZTVN6icu_7711ReplaceableE, i32 0, i32 0, i32 2), ptr %3, align 8, !tbaa !12
  ret void
}

; Function Attrs: inlinehint mustprogress uwtable
define linkonce_odr void @_ZN6icu_7713UnicodeStringC2Ev(ptr noundef nonnull align 8 dereferenceable(64) %0) unnamed_addr #6 comdat align 2 {
  %2 = alloca ptr, align 8
  store ptr %0, ptr %2, align 8, !tbaa !8
  %3 = load ptr, ptr %2, align 8
  call void @_ZN6icu_7711ReplaceableC2Ev(ptr noundef nonnull align 8 dereferenceable(8) %3)
  store ptr getelementptr inbounds inrange(-16, 88) ({ [13 x ptr] }, ptr @_ZTVN6icu_7713UnicodeStringE, i32 0, i32 0, i32 2), ptr %3, align 8, !tbaa !12
  %4 = getelementptr inbounds nuw %"class.icu_77::UnicodeString", ptr %3, i32 0, i32 1
  %5 = getelementptr inbounds nuw %struct.anon, ptr %4, i32 0, i32 0
  store i16 2, ptr %5, align 8, !tbaa !32
  ret void
}

; Function Attrs: inlinehint mustprogress nounwind uwtable
define linkonce_odr void @_ZN6icu_777UObjectC2Ev(ptr noundef nonnull align 8 dereferenceable(8) %0) unnamed_addr #3 comdat align 2 {
  %2 = alloca ptr, align 8
  store ptr %0, ptr %2, align 8, !tbaa !30
  %3 = load ptr, ptr %2, align 8
  store ptr getelementptr inbounds inrange(-16, 24) ({ [5 x ptr] }, ptr @_ZTVN6icu_777UObjectE, i32 0, i32 0, i32 2), ptr %3, align 8, !tbaa !12
  ret void
}

; Function Attrs: mustprogress uwtable
define void @_ZN6icu_7710NormalizerC2ERKNS_17CharacterIteratorE18UNormalizationMode(ptr noundef nonnull align 8 dereferenceable(116) %0, ptr noundef nonnull align 8 dereferenceable(24) %1, i32 noundef %2) unnamed_addr #1 align 2 personality ptr @__gxx_personality_v0 {
  %4 = alloca ptr, align 8
  %5 = alloca ptr, align 8
  %6 = alloca i32, align 4
  %7 = alloca ptr, align 8
  %8 = alloca i32, align 4
  store ptr %0, ptr %4, align 8, !tbaa !3
  store ptr %1, ptr %5, align 8, !tbaa !44
  store i32 %2, ptr %6, align 4, !tbaa !10
  %9 = load ptr, ptr %4, align 8
  %10 = getelementptr inbounds i8, ptr %9, i64 0
  call void @llvm.memset.p0.i64(ptr align 8 %10, i8 0, i64 8, i1 false)
  call void @_ZN6icu_777UObjectC2Ev(ptr noundef nonnull align 8 dereferenceable(8) %9) #9
  store ptr getelementptr inbounds inrange(-16, 24) ({ [5 x ptr] }, ptr @_ZTVN6icu_7710NormalizerE, i32 0, i32 0, i32 2), ptr %9, align 8, !tbaa !12
  %11 = getelementptr inbounds nuw %"class.icu_77::Normalizer", ptr %9, i32 0, i32 1
  store ptr null, ptr %11, align 8, !tbaa !14
  %12 = getelementptr inbounds nuw %"class.icu_77::Normalizer", ptr %9, i32 0, i32 2
  store ptr null, ptr %12, align 8, !tbaa !23
  %13 = getelementptr inbounds nuw %"class.icu_77::Normalizer", ptr %9, i32 0, i32 3
  %14 = load i32, ptr %6, align 4, !tbaa !10
  store i32 %14, ptr %13, align 8, !tbaa !24
  %15 = getelementptr inbounds nuw %"class.icu_77::Normalizer", ptr %9, i32 0, i32 4
  store i32 0, ptr %15, align 4, !tbaa !25
  %16 = getelementptr inbounds nuw %"class.icu_77::Normalizer", ptr %9, i32 0, i32 5
  %17 = load ptr, ptr %5, align 8, !tbaa !44
  %18 = load ptr, ptr %17, align 8, !tbaa !12
  %19 = getelementptr inbounds ptr, ptr %18, i64 8
  %20 = load ptr, ptr %19, align 8
  %21 = invoke noundef ptr %20(ptr noundef nonnull align 8 dereferenceable(24) %17)
          to label %22 unwind label %29

22:                                               ; preds = %3
  store ptr %21, ptr %16, align 8, !tbaa !26
  %23 = getelementptr inbounds nuw %"class.icu_77::Normalizer", ptr %9, i32 0, i32 6
  store i32 0, ptr %23, align 8, !tbaa !27
  %24 = getelementptr inbounds nuw %"class.icu_77::Normalizer", ptr %9, i32 0, i32 7
  store i32 0, ptr %24, align 4, !tbaa !28
  %25 = getelementptr inbounds nuw %"class.icu_77::Normalizer", ptr %9, i32 0, i32 8
  invoke void @_ZN6icu_7713UnicodeStringC2Ev(ptr noundef nonnull align 8 dereferenceable(64) %25)
          to label %26 unwind label %29

26:                                               ; preds = %22
  %27 = getelementptr inbounds nuw %"class.icu_77::Normalizer", ptr %9, i32 0, i32 9
  store i32 0, ptr %27, align 8, !tbaa !29
  invoke void @_ZN6icu_7710Normalizer4initEv(ptr noundef nonnull align 8 dereferenceable(116) %9)
          to label %28 unwind label %33

28:                                               ; preds = %26
  ret void

29:                                               ; preds = %22, %3
  %30 = landingpad { ptr, i32 }
          cleanup
  %31 = extractvalue { ptr, i32 } %30, 0
  store ptr %31, ptr %7, align 8
  %32 = extractvalue { ptr, i32 } %30, 1
  store i32 %32, ptr %8, align 4
  br label %37

33:                                               ; preds = %26
  %34 = landingpad { ptr, i32 }
          cleanup
  %35 = extractvalue { ptr, i32 } %34, 0
  store ptr %35, ptr %7, align 8
  %36 = extractvalue { ptr, i32 } %34, 1
  store i32 %36, ptr %8, align 4
  call void @_ZN6icu_7713UnicodeStringD1Ev(ptr noundef nonnull align 8 dereferenceable(64) %25) #9
  br label %37

37:                                               ; preds = %33, %29
  call void @_ZN6icu_777UObjectD2Ev(ptr noundef nonnull align 8 dereferenceable(8) %9) #9
  br label %38

38:                                               ; preds = %37
  %39 = load ptr, ptr %7, align 8
  %40 = load i32, ptr %8, align 4
  %41 = insertvalue { ptr, i32 } poison, ptr %39, 0
  %42 = insertvalue { ptr, i32 } %41, i32 %40, 1
  resume { ptr, i32 } %42
}